; Function Attrs: nounwind sspstrong uwtable
define noundef i64 @rb_coverage_resume(i64 %0) #0 {
  %2 = load i32, ptr @current_state, align 4, !tbaa !6
  switch i32 %2, label %7 [
    i32 0, label %3
    i32 2, label %5
  ]

3:                                                ; preds = %1
  %4 = load i64, ptr @rb_eRuntimeError, align 8, !tbaa !10
  tail call void (i64, ptr, ...) @rb_raise(i64 noundef %4, ptr noundef nonnull @.str) #8
  unreachable

5:                                                ; preds = %1
  %6 = load i64, ptr @rb_eRuntimeError, align 8, !tbaa !10
  tail call void (i64, ptr, ...) @rb_raise(i64 noundef %6, ptr noundef nonnull @.str.1) #8
  unreachable

7:                                                ; preds = %1
  tail call void @rb_resume_coverages() #9
  store i32 2, ptr @current_state, align 4, !tbaa !6
  ret i64 4
}